target datalayout = "e-m:e-p270:32:32-p271:32:32-p272:64:64-i64:64-i128:128-f80:128-n8:16:32:64-S128"
target triple = "x86_64-pc-linux-gnu"

%class.TypeOrigin = type { i32, i32, ptr, %class.VerificationType }
%class.VerificationType = type { %union.anon.3 }
%union.anon.3 = type { ptr }

; Function Attrs: mustprogress nounwind uwtable
define linkonce_odr hidden void @_ZN10TypeOriginC2ENS_6OriginEiP13StackMapFrame16VerificationType(ptr noundef nonnull align 8 dereferenceable(24) %0, i32 noundef %1, i32 noundef %2, ptr noundef %3, ptr %4) unnamed_addr #1 comdat align 2 {
  %6 = alloca %class.VerificationType, align 8
  %7 = alloca ptr, align 8
  %8 = alloca i32, align 4
  %9 = alloca i32, align 4
  %10 = alloca ptr, align 8
  %11 = getelementptr inbounds %class.VerificationType, ptr %6, i32 0, i32 0
  %12 = getelementptr inbounds %union.anon.3, ptr %11, i32 0, i32 0
  store ptr %4, ptr %12, align 8
  store ptr %0, ptr %7, align 8
  store i32 %1, ptr %8, align 4
  store i32 %2, ptr %9, align 4
  store ptr %3, ptr %10, align 8
  %13 = load ptr, ptr %7, align 8
  %14 = getelementptr inbounds %class.TypeOrigin, ptr %13, i32 0, i32 0
  %15 = load i32, ptr %8, align 4
  store i32 %15, ptr %14, align 8
  %16 = getelementptr inbounds %class.TypeOrigin, ptr %13, i32 0, i32 1
  %17 = load i32, ptr %9, align 4
  store i32 %17, ptr %16, align 4
  %18 = getelementptr inbounds %class.TypeOrigin, ptr %13, i32 0, i32 2
  %19 = load ptr, ptr %10, align 8
  store ptr %19, ptr %18, align 8
  %20 = getelementptr inbounds %class.TypeOrigin, ptr %13, i32 0, i32 3
  call void @llvm.memcpy.p0.p0.i64(ptr align 8 %20, ptr align 8 %6, i64 8, i1 false)
  ret void
}

; Function Attrs: mustprogress nounwind uwtable
define hidden void @_ZN10TypeOrigin9signatureE16VerificationType(ptr dead_on_unwind noalias writable sret(%class.TypeOrigin) align 8 %0, ptr %1) #1 align 2 {
  %3 = alloca %class.VerificationType, align 8
  %4 = alloca %class.VerificationType, align 8
  %5 = getelementptr inbounds %class.VerificationType, ptr %3, i32 0, i32 0
  %6 = getelementptr inbounds %union.anon.3, ptr %5, i32 0, i32 0
  store ptr %1, ptr %6, align 8
  call void @llvm.memcpy.p0.p0.i64(ptr align 8 %4, ptr align 8 %3, i64 8, i1 false)
  %7 = getelementptr inbounds %class.VerificationType, ptr %4, i32 0, i32 0
  %8 = getelementptr inbounds %union.anon.3, ptr %7, i32 0, i32 0
  %9 = load ptr, ptr %8, align 8
  call void @_ZN10TypeOriginC2ENS_6OriginEiP13StackMapFrame16VerificationType(ptr noundef nonnull align 8 dereferenceable(24) %0, i32 noundef 5, i32 noundef 0, ptr noundef null, ptr %9)
  ret void
}